target datalayout = "e-m:e-p270:32:32-p271:32:32-p272:64:64-i64:64-i128:128-f80:128-n8:16:32:64-S128"
target triple = "x86_64-pc-linux-gnu"

%"class.std::basic_string_view" = type { i64, ptr }
%class.anon = type { ptr }

; Function Attrs: mustprogress nounwind uwtable
define linkonce_odr dso_local noundef i32 @_ZNSt11char_traitsIcE7compareEPKcS2_m(ptr noundef %0, ptr noundef %1, i64 noundef %2) #2 comdat align 2 {
  %4 = alloca i32, align 4
  %5 = alloca ptr, align 8
  %6 = alloca ptr, align 8
  %7 = alloca i64, align 8
  store ptr %0, ptr %5, align 8, !tbaa !24
  store ptr %1, ptr %6, align 8, !tbaa !24
  store i64 %2, ptr %7, align 8, !tbaa !22
  %8 = load i64, ptr %7, align 8, !tbaa !22
  %9 = icmp eq i64 %8, 0
  br i1 %9, label %10, label %11

10:                                               ; preds = %3
  store i32 0, ptr %4, align 4
  br label %16

11:                                               ; preds = %3
  %12 = load ptr, ptr %5, align 8, !tbaa !24
  %13 = load ptr, ptr %6, align 8, !tbaa !24
  %14 = load i64, ptr %7, align 8, !tbaa !22
  %15 = call i32 @memcmp(ptr noundef %12, ptr noundef %13, i64 noundef %14) #18
  store i32 %15, ptr %4, align 4
  br label %16

16:                                               ; preds = %11, %10
  %17 = load i32, ptr %4, align 4
  ret i32 %17
}

; Function Attrs: mustprogress nounwind uwtable
define linkonce_odr dso_local noundef ptr @_ZNSt11char_traitsIcE4findEPKcmRS1_(ptr noundef %0, i64 noundef %1, ptr noundef nonnull align 1 dereferenceable(1) %2) #2 comdat align 2 {
  %4 = alloca ptr, align 8
  %5 = alloca ptr, align 8
  %6 = alloca i64, align 8
  %7 = alloca ptr, align 8
  store ptr %0, ptr %5, align 8, !tbaa !24
  store i64 %1, ptr %6, align 8, !tbaa !22
  store ptr %2, ptr %7, align 8, !tbaa !24
  %8 = load i64, ptr %6, align 8, !tbaa !22
  %9 = icmp eq i64 %8, 0
  br i1 %9, label %10, label %11

10:                                               ; preds = %3
  store ptr null, ptr %4, align 8
  br label %18

11:                                               ; preds = %3
  %12 = load ptr, ptr %5, align 8, !tbaa !24
  %13 = load ptr, ptr %7, align 8, !tbaa !24
  %14 = load i8, ptr %13, align 1, !tbaa !38
  %15 = sext i8 %14 to i32
  %16 = load i64, ptr %6, align 8, !tbaa !22
  %17 = call ptr @memchr(ptr noundef %12, i32 noundef %15, i64 noundef %16) #18
  store ptr %17, ptr %4, align 8
  br label %18

18:                                               ; preds = %11, %10
  %19 = load ptr, ptr %4, align 8
  ret ptr %19
}

; Function Attrs: mustprogress nounwind uwtable
define linkonce_odr dso_local noundef i64 @_ZNKSt17basic_string_viewIcSt11char_traitsIcEE4findEPKcmm(ptr noundef nonnull align 8 dereferenceable(16) %0, ptr noundef %1, i64 noundef %2, i64 noundef %3) #2 comdat align 2 {
  %5 = alloca i64, align 8
  %6 = alloca ptr, align 8
  %7 = alloca ptr, align 8
  %8 = alloca i64, align 8
  %9 = alloca i64, align 8
  %10 = alloca i8, align 1
  %11 = alloca ptr, align 8
  %12 = alloca ptr, align 8
  %13 = alloca i64, align 8
  %14 = alloca i32, align 4
  store ptr %0, ptr %6, align 8, !tbaa !19
  store ptr %1, ptr %7, align 8, !tbaa !24
  store i64 %2, ptr %8, align 8, !tbaa !22
  store i64 %3, ptr %9, align 8, !tbaa !22
  %15 = load ptr, ptr %6, align 8
  %16 = load i64, ptr %9, align 8, !tbaa !22
  %17 = icmp eq i64 %16, 0
  br i1 %17, label %18, label %28

18:                                               ; preds = %4
  %19 = load i64, ptr %8, align 8, !tbaa !22
  %20 = getelementptr inbounds nuw %"class.std::basic_string_view", ptr %15, i32 0, i32 0
  %21 = load i64, ptr %20, align 8, !tbaa !41
  %22 = icmp ule i64 %19, %21
  br i1 %22, label %23, label %25

23:                                               ; preds = %18
  %24 = load i64, ptr %8, align 8, !tbaa !22
  br label %26

25:                                               ; preds = %18
  br label %26

26:                                               ; preds = %25, %23
  %27 = phi i64 [ %24, %23 ], [ -1, %25 ]
  store i64 %27, ptr %5, align 8
  br label %87

28:                                               ; preds = %4
  %29 = load i64, ptr %8, align 8, !tbaa !22
  %30 = getelementptr inbounds nuw %"class.std::basic_string_view", ptr %15, i32 0, i32 0
  %31 = load i64, ptr %30, align 8, !tbaa !41
  %32 = icmp uge i64 %29, %31
  br i1 %32, label %33, label %34

33:                                               ; preds = %28
  store i64 -1, ptr %5, align 8
  br label %87

34:                                               ; preds = %28
  call void @llvm.lifetime.start.p0(i64 1, ptr %10) #18
  %35 = load ptr, ptr %7, align 8, !tbaa !24
  %36 = getelementptr inbounds i8, ptr %35, i64 0
  %37 = load i8, ptr %36, align 1, !tbaa !38
  store i8 %37, ptr %10, align 1, !tbaa !38
  call void @llvm.lifetime.start.p0(i64 8, ptr %11) #18
  %38 = getelementptr inbounds nuw %"class.std::basic_string_view", ptr %15, i32 0, i32 1
  %39 = load ptr, ptr %38, align 8, !tbaa !43
  %40 = load i64, ptr %8, align 8, !tbaa !22
  %41 = getelementptr inbounds nuw i8, ptr %39, i64 %40
  store ptr %41, ptr %11, align 8, !tbaa !24
  call void @llvm.lifetime.start.p0(i64 8, ptr %12) #18
  %42 = getelementptr inbounds nuw %"class.std::basic_string_view", ptr %15, i32 0, i32 1
  %43 = load ptr, ptr %42, align 8, !tbaa !43
  %44 = getelementptr inbounds nuw %"class.std::basic_string_view", ptr %15, i32 0, i32 0
  %45 = load i64, ptr %44, align 8, !tbaa !41
  %46 = getelementptr inbounds nuw i8, ptr %43, i64 %45
  store ptr %46, ptr %12, align 8, !tbaa !24
  call void @llvm.lifetime.start.p0(i64 8, ptr %13) #18
  %47 = getelementptr inbounds nuw %"class.std::basic_string_view", ptr %15, i32 0, i32 0
  %48 = load i64, ptr %47, align 8, !tbaa !41
  %49 = load i64, ptr %8, align 8, !tbaa !22
  %50 = sub i64 %48, %49
  store i64 %50, ptr %13, align 8, !tbaa !22
  br label %51

51:                                               ; preds = %78, %34
  %52 = load i64, ptr %13, align 8, !tbaa !22
  %53 = load i64, ptr %9, align 8, !tbaa !22
  %54 = icmp uge i64 %52, %53
  br i1 %54, label %55, label %85

55:                                               ; preds = %51
  %56 = load ptr, ptr %11, align 8, !tbaa !24
  %57 = load i64, ptr %13, align 8, !tbaa !22
  %58 = load i64, ptr %9, align 8, !tbaa !22
  %59 = sub i64 %57, %58
  %60 = add i64 %59, 1
  %61 = call noundef ptr @_ZNSt11char_traitsIcE4findEPKcmRS1_(ptr noundef %56, i64 noundef %60, ptr noundef nonnull align 1 dereferenceable(1) %10)
  store ptr %61, ptr %11, align 8, !tbaa !24
  %62 = load ptr, ptr %11, align 8, !tbaa !24
  %63 = icmp ne ptr %62, null
  br i1 %63, label %65, label %64

64:                                               ; preds = %55
  store i64 -1, ptr %5, align 8
  store i32 1, ptr %14, align 4
  br label %86

65:                                               ; preds = %55
  %66 = load ptr, ptr %11, align 8, !tbaa !24
  %67 = load ptr, ptr %7, align 8, !tbaa !24
  %68 = load i64, ptr %9, align 8, !tbaa !22
  %69 = call noundef i32 @_ZNSt11char_traitsIcE7compareEPKcS2_m(ptr noundef %66, ptr noundef %67, i64 noundef %68)
  %70 = icmp eq i32 %69, 0
  br i1 %70, label %71, label %78

71:                                               ; preds = %65
  %72 = load ptr, ptr %11, align 8, !tbaa !24
  %73 = getelementptr inbounds nuw %"class.std::basic_string_view", ptr %15, i32 0, i32 1
  %74 = load ptr, ptr %73, align 8, !tbaa !43
  %75 = ptrtoint ptr %72 to i64
  %76 = ptrtoint ptr %74 to i64
  %77 = sub i64 %75, %76
  store i64 %77, ptr %5, align 8
  store i32 1, ptr %14, align 4
  br label %86

78:                                               ; preds = %65
  %79 = load ptr, ptr %12, align 8, !tbaa !24
  %80 = load ptr, ptr %11, align 8, !tbaa !24
  %81 = getelementptr inbounds nuw i8, ptr %80, i32 1
  store ptr %81, ptr %11, align 8, !tbaa !24
  %82 = ptrtoint ptr %79 to i64
  %83 = ptrtoint ptr %81 to i64
  %84 = sub i64 %82, %83
  store i64 %84, ptr %13, align 8, !tbaa !22
  br label %51, !llvm.loop !370

85:                                               ; preds = %51
  store i64 -1, ptr %5, align 8
  store i32 1, ptr %14, align 4
  br label %86

86:                                               ; preds = %85, %71, %64
  call void @llvm.lifetime.end.p0(i64 8, ptr %13) #18
  call void @llvm.lifetime.end.p0(i64 8, ptr %12) #18
  call void @llvm.lifetime.end.p0(i64 8, ptr %11) #18
  call void @llvm.lifetime.end.p0(i64 1, ptr %10) #18
  br label %87

87:                                               ; preds = %86, %33, %26
  %88 = load i64, ptr %5, align 8
  ret i64 %88
}

; Function Attrs: mustprogress nounwind uwtable
define linkonce_odr dso_local noundef i64 @_ZNKSt17basic_string_viewIcSt11char_traitsIcEE4findES2_m(ptr noundef nonnull align 8 dereferenceable(16) %0, i64 %1, ptr %2, i64 noundef %3) #2 comdat align 2 {
  %5 = alloca %"class.std::basic_string_view", align 8
  %6 = alloca ptr, align 8
  %7 = alloca i64, align 8
  %8 = getelementptr inbounds nuw { i64, ptr }, ptr %5, i32 0, i32 0
  store i64 %1, ptr %8, align 8
  %9 = getelementptr inbounds nuw { i64, ptr }, ptr %5, i32 0, i32 1
  store ptr %2, ptr %9, align 8
  store ptr %0, ptr %6, align 8, !tbaa !19
  store i64 %3, ptr %7, align 8, !tbaa !22
  %10 = load ptr, ptr %6, align 8
  %11 = getelementptr inbounds nuw %"class.std::basic_string_view", ptr %5, i32 0, i32 1
  %12 = load ptr, ptr %11, align 8, !tbaa !43
  %13 = load i64, ptr %7, align 8, !tbaa !22
  %14 = getelementptr inbounds nuw %"class.std::basic_string_view", ptr %5, i32 0, i32 0
  %15 = load i64, ptr %14, align 8, !tbaa !41
  %16 = call noundef i64 @_ZNKSt17basic_string_viewIcSt11char_traitsIcEE4findEPKcmm(ptr noundef nonnull align 8 dereferenceable(16) %10, ptr noundef %12, i64 noundef %13, i64 noundef %15) #18
  ret i64 %16
}

; Function Attrs: inlinehint mustprogress nounwind uwtable
define linkonce_odr dso_local noundef zeroext i1 @_ZN4absl11StrContainsESt17basic_string_viewIcSt11char_traitsIcEES3_(i64 %0, ptr %1, i64 %2, ptr %3) #5 comdat {
  %5 = alloca %"class.std::basic_string_view", align 8
  %6 = alloca %"class.std::basic_string_view", align 8
  %7 = alloca %"class.std::basic_string_view", align 8
  %8 = getelementptr inbounds nuw { i64, ptr }, ptr %5, i32 0, i32 0
  store i64 %0, ptr %8, align 8
  %9 = getelementptr inbounds nuw { i64, ptr }, ptr %5, i32 0, i32 1
  store ptr %1, ptr %9, align 8
  %10 = getelementptr inbounds nuw { i64, ptr }, ptr %6, i32 0, i32 0
  store i64 %2, ptr %10, align 8
  %11 = getelementptr inbounds nuw { i64, ptr }, ptr %6, i32 0, i32 1
  store ptr %3, ptr %11, align 8
  call void @llvm.memcpy.p0.p0.i64(ptr align 8 %7, ptr align 8 %6, i64 16, i1 false), !tbaa.struct !21
  %12 = getelementptr inbounds nuw { i64, ptr }, ptr %7, i32 0, i32 0
  %13 = load i64, ptr %12, align 8
  %14 = getelementptr inbounds nuw { i64, ptr }, ptr %7, i32 0, i32 1
  %15 = load ptr, ptr %14, align 8
  %16 = call noundef i64 @_ZNKSt17basic_string_viewIcSt11char_traitsIcEE4findES2_m(ptr noundef nonnull align 8 dereferenceable(16) %5, i64 %13, ptr %15, i64 noundef 0) #18
  %17 = icmp ne i64 %16, -1
  ret i1 %17
}

; Function Attrs: mustprogress nounwind uwtable
define linkonce_odr dso_local noundef zeroext i1 @_ZNKSt17basic_string_viewIcSt11char_traitsIcEE5emptyEv(ptr noundef nonnull align 8 dereferenceable(16) %0) #2 comdat align 2 {
  %2 = alloca ptr, align 8
  store ptr %0, ptr %2, align 8, !tbaa !19
  %3 = load ptr, ptr %2, align 8
  %4 = getelementptr inbounds nuw %"class.std::basic_string_view", ptr %3, i32 0, i32 0
  %5 = load i64, ptr %4, align 8, !tbaa !41
  %6 = icmp eq i64 %5, 0
  ret i1 %6
}

; Function Attrs: inlinehint mustprogress nounwind uwtable
define internal noundef zeroext i1 @"_ZZN4absl14flags_internal9FlagsHelpERSoSt17basic_string_viewIcSt11char_traitsIcEENS0_10HelpFormatES5_ENK3$_0clES5_"(ptr noundef nonnull align 8 dereferenceable(8) %0, i64 %1, ptr %2) #5 align 2 {
  %4 = alloca %"class.std::basic_string_view", align 8
  %5 = alloca ptr, align 8
  %6 = alloca %"class.std::basic_string_view", align 8
  %7 = alloca %"class.std::basic_string_view", align 8
  %8 = getelementptr inbounds nuw { i64, ptr }, ptr %4, i32 0, i32 0
  store i64 %1, ptr %8, align 8
  %9 = getelementptr inbounds nuw { i64, ptr }, ptr %4, i32 0, i32 1
  store ptr %2, ptr %9, align 8
  store ptr %0, ptr %5, align 8, !tbaa !28
  %10 = load ptr, ptr %5, align 8
  %11 = getelementptr inbounds nuw %class.anon, ptr %10, i32 0, i32 0
  %12 = load ptr, ptr %11, align 8, !tbaa !368
  %13 = call noundef zeroext i1 @_ZNKSt17basic_string_viewIcSt11char_traitsIcEE5emptyEv(ptr noundef nonnull align 8 dereferenceable(16) %12) #18
  br i1 %13, label %26, label %14

14:                                               ; preds = %3
  call void @llvm.memcpy.p0.p0.i64(ptr align 8 %6, ptr align 8 %4, i64 16, i1 false), !tbaa.struct !21
  %15 = getelementptr inbounds nuw %class.anon, ptr %10, i32 0, i32 0
  %16 = load ptr, ptr %15, align 8, !tbaa !368
  call void @llvm.memcpy.p0.p0.i64(ptr align 8 %7, ptr align 8 %16, i64 16, i1 false), !tbaa.struct !21
  %17 = getelementptr inbounds nuw { i64, ptr }, ptr %6, i32 0, i32 0
  %18 = load i64, ptr %17, align 8
  %19 = getelementptr inbounds nuw { i64, ptr }, ptr %6, i32 0, i32 1
  %20 = load ptr, ptr %19, align 8
  %21 = getelementptr inbounds nuw { i64, ptr }, ptr %7, i32 0, i32 0
  %22 = load i64, ptr %21, align 8
  %23 = getelementptr inbounds nuw { i64, ptr }, ptr %7, i32 0, i32 1
  %24 = load ptr, ptr %23, align 8
  %25 = call noundef zeroext i1 @_ZN4absl11StrContainsESt17basic_string_viewIcSt11char_traitsIcEES3_(i64 %18, ptr %20, i64 %22, ptr %24) #18
  br label %26

26:                                               ; preds = %14, %3
  %27 = phi i1 [ true, %3 ], [ %25, %14 ]
  ret i1 %27
}

; Function Attrs: mustprogress nounwind uwtable
define linkonce_odr dso_local noundef ptr @_ZNKSt9_Any_data9_M_accessEv(ptr noundef nonnull align 8 dereferenceable(16) %0) #2 comdat align 2 {
  %2 = alloca ptr, align 8
  store ptr %0, ptr %2, align 8, !tbaa !168
  %3 = load ptr, ptr %2, align 8
  %4 = getelementptr inbounds [16 x i8], ptr %3, i64 0, i64 0
  ret ptr %4
}

; Function Attrs: mustprogress uwtable
define internal noundef zeroext i1 @"_ZSt13__invoke_implIbRZN4absl14flags_internal9FlagsHelpERSoSt17basic_string_viewIcSt11char_traitsIcEENS1_10HelpFormatES6_E3$_0JS6_EET_St14__invoke_otherOT0_DpOT1_"(ptr noundef nonnull align 8 dereferenceable(8) %0, ptr noundef nonnull align 8 dereferenceable(16) %1) #0 {
  %3 = alloca ptr, align 8
  %4 = alloca ptr, align 8
  %5 = alloca %"class.std::basic_string_view", align 8
  store ptr %0, ptr %3, align 8, !tbaa !28
  store ptr %1, ptr %4, align 8, !tbaa !19
  %6 = load ptr, ptr %3, align 8, !tbaa !28
  %7 = load ptr, ptr %4, align 8, !tbaa !19
  call void @llvm.memcpy.p0.p0.i64(ptr align 8 %5, ptr align 8 %7, i64 16, i1 false), !tbaa.struct !21
  %8 = getelementptr inbounds nuw { i64, ptr }, ptr %5, i32 0, i32 0
  %9 = load i64, ptr %8, align 8
  %10 = getelementptr inbounds nuw { i64, ptr }, ptr %5, i32 0, i32 1
  %11 = load ptr, ptr %10, align 8
  %12 = call noundef zeroext i1 @"_ZZN4absl14flags_internal9FlagsHelpERSoSt17basic_string_viewIcSt11char_traitsIcEENS0_10HelpFormatES5_ENK3$_0clES5_"(ptr noundef nonnull align 8 dereferenceable(8) %6, i64 %9, ptr %11)
  ret i1 %12
}

; Function Attrs: mustprogress nounwind uwtable
define internal noundef nonnull align 8 dereferenceable(8) ptr @"_ZNKSt9_Any_data9_M_accessIZN4absl14flags_internal9FlagsHelpERSoSt17basic_string_viewIcSt11char_traitsIcEENS2_10HelpFormatES7_E3$_0EERKT_v"(ptr noundef nonnull align 8 dereferenceable(16) %0) #2 align 2 {
  %2 = alloca ptr, align 8
  store ptr %0, ptr %2, align 8, !tbaa !168
  %3 = load ptr, ptr %2, align 8
  %4 = call noundef ptr @_ZNKSt9_Any_data9_M_accessEv(ptr noundef nonnull align 8 dereferenceable(16) %3) #18
  ret ptr %4
}

; Function Attrs: mustprogress uwtable
define internal noundef zeroext i1 @"_ZSt10__invoke_rIbRZN4absl14flags_internal9FlagsHelpERSoSt17basic_string_viewIcSt11char_traitsIcEENS1_10HelpFormatES6_E3$_0JS6_EENSt9enable_ifIX16is_invocable_r_vIT_T0_DpT1_EESB_E4typeEOSC_DpOSD_"(ptr noundef nonnull align 8 dereferenceable(8) %0, ptr noundef nonnull align 8 dereferenceable(16) %1) #0 {
  %3 = alloca ptr, align 8
  %4 = alloca ptr, align 8
  store ptr %0, ptr %3, align 8, !tbaa !28
  store ptr %1, ptr %4, align 8, !tbaa !19
  %5 = load ptr, ptr %3, align 8, !tbaa !28
  %6 = load ptr, ptr %4, align 8, !tbaa !19
  %7 = call noundef zeroext i1 @"_ZSt13__invoke_implIbRZN4absl14flags_internal9FlagsHelpERSoSt17basic_string_viewIcSt11char_traitsIcEENS1_10HelpFormatES6_E3$_0JS6_EET_St14__invoke_otherOT0_DpOT1_"(ptr noundef nonnull align 8 dereferenceable(8) %5, ptr noundef nonnull align 8 dereferenceable(16) %6)
  ret i1 %7
}

; Function Attrs: mustprogress nounwind uwtable
define internal noundef ptr @"_ZNSt14_Function_base13_Base_managerIZN4absl14flags_internal9FlagsHelpERSoSt17basic_string_viewIcSt11char_traitsIcEENS2_10HelpFormatES7_E3$_0E14_M_get_pointerERKSt9_Any_data"(ptr noundef nonnull align 8 dereferenceable(16) %0) #2 align 2 {
  %2 = alloca ptr, align 8
  %3 = alloca ptr, align 8
  store ptr %0, ptr %2, align 8, !tbaa !168
  call void @llvm.lifetime.start.p0(i64 8, ptr %3) #18
  %4 = load ptr, ptr %2, align 8, !tbaa !168
  %5 = call noundef nonnull align 8 dereferenceable(8) ptr @"_ZNKSt9_Any_data9_M_accessIZN4absl14flags_internal9FlagsHelpERSoSt17basic_string_viewIcSt11char_traitsIcEENS2_10HelpFormatES7_E3$_0EERKT_v"(ptr noundef nonnull align 8 dereferenceable(16) %4) #18
  store ptr %5, ptr %3, align 8, !tbaa !28
  %6 = load ptr, ptr %3, align 8, !tbaa !28
  call void @llvm.lifetime.end.p0(i64 8, ptr %3) #18
  ret ptr %6
}

; Function Attrs: mustprogress uwtable
define internal noundef zeroext i1 @"_ZNSt17_Function_handlerIFbSt17basic_string_viewIcSt11char_traitsIcEEEZN4absl14flags_internal9FlagsHelpERSoS3_NS6_10HelpFormatES3_E3$_0E9_M_invokeERKSt9_Any_dataOS3_"(ptr noundef nonnull align 8 dereferenceable(16) %0, ptr noundef nonnull align 8 dereferenceable(16) %1) #0 align 2 {
  %3 = alloca ptr, align 8
  %4 = alloca ptr, align 8
  store ptr %0, ptr %3, align 8, !tbaa !168
  store ptr %1, ptr %4, align 8, !tbaa !19
  %5 = load ptr, ptr %3, align 8, !tbaa !168
  %6 = call noundef ptr @"_ZNSt14_Function_base13_Base_managerIZN4absl14flags_internal9FlagsHelpERSoSt17basic_string_viewIcSt11char_traitsIcEENS2_10HelpFormatES7_E3$_0E14_M_get_pointerERKSt9_Any_data"(ptr noundef nonnull align 8 dereferenceable(16) %5) #18
  %7 = load ptr, ptr %4, align 8, !tbaa !19
  %8 = call noundef zeroext i1 @"_ZSt10__invoke_rIbRZN4absl14flags_internal9FlagsHelpERSoSt17basic_string_viewIcSt11char_traitsIcEENS1_10HelpFormatES6_E3$_0JS6_EENSt9enable_ifIX16is_invocable_r_vIT_T0_DpT1_EESB_E4typeEOSC_DpOSD_"(ptr noundef nonnull align 8 dereferenceable(8) %6, ptr noundef nonnull align 8 dereferenceable(16) %7)
  ret i1 %8
}