; Function Attrs: mustprogress nofree nounwind willreturn memory(read, inaccessiblemem: none) uwtable
define internal noundef zeroext i1 @"_ZNSt17_Function_handlerIFbSt17basic_string_viewIcSt11char_traitsIcEEEZN4absl14flags_internal9FlagsHelpERSoS3_NS6_10HelpFormatES3_E3$_0E9_M_invokeERKSt9_Any_dataOS3_"(ptr noundef nonnull readonly align 8 captures(none) dereferenceable(16) %0, ptr noundef nonnull readonly align 8 captures(none) dereferenceable(16) %1) #20 align 2 {
  %.val = load ptr, ptr %0, align 8, !tbaa !163
  %.val2 = load i64, ptr %1, align 8, !tbaa !19
  %3 = getelementptr inbounds nuw i8, ptr %1, i64 8
  %.val3 = load ptr, ptr %3, align 8, !tbaa !20
  %4 = load i64, ptr %.val, align 8, !tbaa !94
  %5 = icmp eq i64 %4, 0
  br i1 %5, label %"_ZSt10__invoke_rIbRZN4absl14flags_internal9FlagsHelpERSoSt17basic_string_viewIcSt11char_traitsIcEENS1_10HelpFormatES6_E3$_0JS6_EENSt9enable_ifIX16is_invocable_r_vIT_T0_DpT1_EESB_E4typeEOSC_DpOSD_.exit", label %6

6:                                                ; preds = %2
  %.sroa.2.0..sroa_idx.i.i.i = getelementptr inbounds nuw i8, ptr %.val, i64 8
  %.sroa.2.0.copyload.i.i.i = load ptr, ptr %.sroa.2.0..sroa_idx.i.i.i, align 8, !tbaa !20
  %.not2531.i.i.i.i.i.i = icmp ult i64 %.val2, %4
  br i1 %.not2531.i.i.i.i.i.i, label %"_ZSt10__invoke_rIbRZN4absl14flags_internal9FlagsHelpERSoSt17basic_string_viewIcSt11char_traitsIcEENS1_10HelpFormatES6_E3$_0JS6_EENSt9enable_ifIX16is_invocable_r_vIT_T0_DpT1_EESB_E4typeEOSC_DpOSD_.exit", label %.lr.ph.i.i.i.i.i.i

.lr.ph.i.i.i.i.i.i:                               ; preds = %6
  %7 = getelementptr inbounds nuw i8, ptr %.val3, i64 %.val2
  %8 = load i8, ptr %.sroa.2.0.copyload.i.i.i, align 1, !tbaa !26
  %9 = sext i8 %8 to i32
  %10 = ptrtoint ptr %7 to i64
  br label %11

11:                                               ; preds = %22, %.lr.ph.i.i.i.i.i.i
  %.033.i.i.i.i.i.i = phi i64 [ %.val2, %.lr.ph.i.i.i.i.i.i ], [ %25, %22 ]
  %.02132.i.i.i.i.i.i = phi ptr [ %.val3, %.lr.ph.i.i.i.i.i.i ], [ %23, %22 ]
  %12 = sub nuw i64 %.033.i.i.i.i.i.i, %4
  %13 = add i64 %12, 1
  %14 = icmp eq i64 %13, 0
  br i1 %14, label %"_ZSt10__invoke_rIbRZN4absl14flags_internal9FlagsHelpERSoSt17basic_string_viewIcSt11char_traitsIcEENS1_10HelpFormatES6_E3$_0JS6_EENSt9enable_ifIX16is_invocable_r_vIT_T0_DpT1_EESB_E4typeEOSC_DpOSD_.exit", label %_ZNSt11char_traitsIcE4findEPKcmRS1_.exit.i.i.i.i.i.i

_ZNSt11char_traitsIcE4findEPKcmRS1_.exit.i.i.i.i.i.i: ; preds = %11
  %15 = tail call ptr @memchr(ptr noundef %.02132.i.i.i.i.i.i, i32 noundef %9, i64 noundef %13) #24
  %.not26.i.i.i.i.i.i = icmp eq ptr %15, null
  br i1 %.not26.i.i.i.i.i.i, label %"_ZSt10__invoke_rIbRZN4absl14flags_internal9FlagsHelpERSoSt17basic_string_viewIcSt11char_traitsIcEENS1_10HelpFormatES6_E3$_0JS6_EENSt9enable_ifIX16is_invocable_r_vIT_T0_DpT1_EESB_E4typeEOSC_DpOSD_.exit", label %_ZNSt11char_traitsIcE7compareEPKcS2_m.exit.i.i.i.i.i.i

_ZNSt11char_traitsIcE7compareEPKcS2_m.exit.i.i.i.i.i.i: ; preds = %_ZNSt11char_traitsIcE4findEPKcmRS1_.exit.i.i.i.i.i.i
  %bcmp.i.i.i.i.i.i = tail call i32 @bcmp(ptr nonnull %15, ptr nonnull %.sroa.2.0.copyload.i.i.i, i64 %4)
  %16 = icmp eq i32 %bcmp.i.i.i.i.i.i, 0
  br i1 %16, label %17, label %22

17:                                               ; preds = %_ZNSt11char_traitsIcE7compareEPKcS2_m.exit.i.i.i.i.i.i
  %18 = ptrtoint ptr %15 to i64
  %19 = ptrtoint ptr %.val3 to i64
  %20 = sub i64 %18, %19
  %21 = icmp ne i64 %20, -1
  br label %"_ZSt10__invoke_rIbRZN4absl14flags_internal9FlagsHelpERSoSt17basic_string_viewIcSt11char_traitsIcEENS1_10HelpFormatES6_E3$_0JS6_EENSt9enable_ifIX16is_invocable_r_vIT_T0_DpT1_EESB_E4typeEOSC_DpOSD_.exit"

22:                                               ; preds = %_ZNSt11char_traitsIcE7compareEPKcS2_m.exit.i.i.i.i.i.i
  %23 = getelementptr inbounds nuw i8, ptr %15, i64 1
  %24 = ptrtoint ptr %23 to i64
  %25 = sub i64 %10, %24
  %.not25.i.i.i.i.i.i = icmp ult i64 %25, %4
  br i1 %.not25.i.i.i.i.i.i, label %"_ZSt10__invoke_rIbRZN4absl14flags_internal9FlagsHelpERSoSt17basic_string_viewIcSt11char_traitsIcEENS1_10HelpFormatES6_E3$_0JS6_EENSt9enable_ifIX16is_invocable_r_vIT_T0_DpT1_EESB_E4typeEOSC_DpOSD_.exit", label %11, !llvm.loop !165

"_ZSt10__invoke_rIbRZN4absl14flags_internal9FlagsHelpERSoSt17basic_string_viewIcSt11char_traitsIcEENS1_10HelpFormatES6_E3$_0JS6_EENSt9enable_ifIX16is_invocable_r_vIT_T0_DpT1_EESB_E4typeEOSC_DpOSD_.exit": ; preds = %11, %_ZNSt11char_traitsIcE4findEPKcmRS1_.exit.i.i.i.i.i.i, %22, %2, %6, %17
  %26 = phi i1 [ true, %2 ], [ false, %6 ], [ %21, %17 ], [ false, %22 ], [ false, %_ZNSt11char_traitsIcE4findEPKcmRS1_.exit.i.i.i.i.i.i ], [ false, %11 ]
  ret i1 %26
}